target datalayout = "e-m:e-p270:32:32-p271:32:32-p272:64:64-i64:64-i128:128-f80:128-n8:16:32:64-S128"
target triple = "x86_64-pc-linux-gnu"

%class.QString = type { %struct.QArrayDataPointer }
%struct.QArrayDataPointer = type { ptr, ptr, i64 }
%class.FollowStreamDialog = type <{ %class.WiresharkDialog.base, [3 x i8], ptr, ptr, ptr, ptr, ptr, ptr, %struct._follow_info, ptr, %class.QString, %class.QString, %class.QString, i32, i32, i32, i32, i32, i8, [3 x i8], %struct.nstime_t, i32, i8, i8, [2 x i8], i32, [4 x i8] }>
%class.WiresharkDialog.base = type <{ %class.GeometryStateDialog, ptr, i8, [7 x i8], %class.QString, %class.QList, i32, i8 }>
%class.GeometryStateDialog = type { %class.QDialog, %class.QString, ptr }
%class.QDialog = type { %class.QWidget }
%class.QWidget = type { %class.QObject, %class.QPaintDevice.base, ptr }
%class.QObject = type { ptr, %class.QScopedPointer }
%class.QScopedPointer = type { ptr }
%class.QPaintDevice.base = type <{ ptr, i16 }>
%class.QList = type { %struct.QArrayDataPointer.0 }
%struct.QArrayDataPointer.0 = type { ptr, ptr, i64 }
%struct._follow_info = type { i32, ptr, ptr, [2 x i32], [2 x i32], [2 x ptr], i32, i32, %struct._address, %struct._address, ptr, i64 }
%struct._address = type { i32, i32, ptr, ptr }
%struct.nstime_t = type { i64, i32 }
%class.Ui_FollowStreamDialog = type { ptr, ptr, ptr, ptr, ptr, ptr, ptr, ptr, ptr, ptr, ptr, ptr, ptr, ptr, ptr, ptr, ptr, ptr, ptr, ptr, ptr }

; Function Attrs: mustprogress null_pointer_is_valid sspstrong uwtable
define void @_ZN18FollowStreamDialog20removeStreamControlsEv(ptr noundef align 8 dereferenceable_or_null(452) %0) #3 align 2 {
  %2 = alloca ptr, align 8
  store ptr %0, ptr %2, align 8
  %3 = load ptr, ptr %2, align 8
  %4 = getelementptr inbounds nuw %class.FollowStreamDialog, ptr %3, i32 0, i32 2
  %5 = load ptr, ptr %4, align 8
  %6 = getelementptr inbounds nuw %class.Ui_FollowStreamDialog, ptr %5, i32 0, i32 3
  %7 = load ptr, ptr %6, align 8
  %8 = getelementptr inbounds nuw %class.FollowStreamDialog, ptr %3, i32 0, i32 2
  %9 = load ptr, ptr %8, align 8
  %10 = getelementptr inbounds nuw %class.Ui_FollowStreamDialog, ptr %9, i32 0, i32 10
  %11 = load ptr, ptr %10, align 8
  call void @_ZN7QLayout10removeItemEP11QLayoutItem(ptr noundef align 8 dereferenceable_or_null(28) %7, ptr noundef %11)
  %12 = getelementptr inbounds nuw %class.FollowStreamDialog, ptr %3, i32 0, i32 2
  %13 = load ptr, ptr %12, align 8
  %14 = getelementptr inbounds nuw %class.Ui_FollowStreamDialog, ptr %13, i32 0, i32 11
  %15 = load ptr, ptr %14, align 8
  %16 = load ptr, ptr %15, align 8
  %17 = getelementptr inbounds ptr, ptr %16, i64 13
  %18 = load ptr, ptr %17, align 8
  call void %18(ptr noundef align 8 dereferenceable_or_null(40) %15, i1 noundef zeroext false)
  %19 = getelementptr inbounds nuw %class.FollowStreamDialog, ptr %3, i32 0, i32 2
  %20 = load ptr, ptr %19, align 8
  %21 = getelementptr inbounds nuw %class.Ui_FollowStreamDialog, ptr %20, i32 0, i32 12
  %22 = load ptr, ptr %21, align 8
  %23 = load ptr, ptr %22, align 8
  %24 = getelementptr inbounds ptr, ptr %23, i64 13
  %25 = load ptr, ptr %24, align 8
  call void %25(ptr noundef align 8 dereferenceable_or_null(40) %22, i1 noundef zeroext false)
  %26 = getelementptr inbounds nuw %class.FollowStreamDialog, ptr %3, i32 0, i32 2
  %27 = load ptr, ptr %26, align 8
  %28 = getelementptr inbounds nuw %class.Ui_FollowStreamDialog, ptr %27, i32 0, i32 13
  %29 = load ptr, ptr %28, align 8
  %30 = load ptr, ptr %29, align 8
  %31 = getelementptr inbounds ptr, ptr %30, i64 13
  %32 = load ptr, ptr %31, align 8
  call void %32(ptr noundef align 8 dereferenceable_or_null(40) %29, i1 noundef zeroext false)
  %33 = getelementptr inbounds nuw %class.FollowStreamDialog, ptr %3, i32 0, i32 2
  %34 = load ptr, ptr %33, align 8
  %35 = getelementptr inbounds nuw %class.Ui_FollowStreamDialog, ptr %34, i32 0, i32 14
  %36 = load ptr, ptr %35, align 8
  %37 = load ptr, ptr %36, align 8
  %38 = getelementptr inbounds ptr, ptr %37, i64 13
  %39 = load ptr, ptr %38, align 8
  call void %39(ptr noundef align 8 dereferenceable_or_null(40) %36, i1 noundef zeroext false)
  ret void
}