; Function Attrs: mustprogress null_pointer_is_valid sspstrong uwtable
define void @_ZN18FollowStreamDialog20removeStreamControlsEv(ptr noundef readonly align 8 captures(none) dereferenceable_or_null(452) %0) local_unnamed_addr #2 align 2 {
  %2 = getelementptr inbounds nuw i8, ptr %0, i64 144
  %3 = load ptr, ptr %2, align 8
  %4 = getelementptr inbounds nuw i8, ptr %3, i64 24
  %5 = load ptr, ptr %4, align 8
  %6 = getelementptr inbounds nuw i8, ptr %3, i64 80
  %7 = load ptr, ptr %6, align 8
  tail call void @_ZN7QLayout10removeItemEP11QLayoutItem(ptr noundef align 8 dereferenceable_or_null(28) %5, ptr noundef %7)
  %8 = load ptr, ptr %2, align 8
  %9 = getelementptr inbounds nuw i8, ptr %8, i64 88
  %10 = load ptr, ptr %9, align 8
  %11 = load ptr, ptr %10, align 8
  %12 = getelementptr inbounds nuw i8, ptr %11, i64 104
  %13 = load ptr, ptr %12, align 8
  tail call void %13(ptr noundef align 8 dereferenceable_or_null(40) %10, i1 noundef zeroext false)
  %14 = load ptr, ptr %2, align 8
  %15 = getelementptr inbounds nuw i8, ptr %14, i64 96
  %16 = load ptr, ptr %15, align 8
  %17 = load ptr, ptr %16, align 8
  %18 = getelementptr inbounds nuw i8, ptr %17, i64 104
  %19 = load ptr, ptr %18, align 8
  tail call void %19(ptr noundef align 8 dereferenceable_or_null(40) %16, i1 noundef zeroext false)
  %20 = load ptr, ptr %2, align 8
  %21 = getelementptr inbounds nuw i8, ptr %20, i64 104
  %22 = load ptr, ptr %21, align 8
  %23 = load ptr, ptr %22, align 8
  %24 = getelementptr inbounds nuw i8, ptr %23, i64 104
  %25 = load ptr, ptr %24, align 8
  tail call void %25(ptr noundef align 8 dereferenceable_or_null(40) %22, i1 noundef zeroext false)
  %26 = load ptr, ptr %2, align 8
  %27 = getelementptr inbounds nuw i8, ptr %26, i64 112
  %28 = load ptr, ptr %27, align 8
  %29 = load ptr, ptr %28, align 8
  %30 = getelementptr inbounds nuw i8, ptr %29, i64 104
  %31 = load ptr, ptr %30, align 8
  tail call void %31(ptr noundef align 8 dereferenceable_or_null(40) %28, i1 noundef zeroext false)
  ret void
}